     1                                  [org 0x0100]
     2 00000000 E9160C                  jmp start
     3                                  
     4 00000003 00                      start_game: db 0
     5 00000004 00000000                oldisr: dd 0
     6 00000008 0000                    colume: dw 0
     7 0000000A 0000                    row: dw 0
     8 0000000C 01                      incC: db 1
     9 0000000D 01                      incR: db 1
    10 0000000E 00                      ball_angle: db 0
    11 0000000F 0000                    previous: dw 0
    12 00000011 00                      tickcount: db 0
    13 00000012 BE0D                    left_edge: dw 3518
    14 00000014 4A0E                    right_edge: dw 3658
    15 00000016 0000                    right_: dw 0
    16 00000018 0000                    left_: dw 0
    17 0000001A 040E                    pre_stack_pos: dw 3588
    18 0000001C 0000                    second: dw 0
    19 0000001E 00                      minute: db 0
    20 0000001F 00                      clock: db 0
    21 00000020 0000                    bonus: dw 0
    22                                  
    23                                  bricks_start_location:
    24 00000022 2A033C034E03600372-         dw 810, 828, 846, 864, 882, 900, 918, 936
    24 0000002B 0384039603A803     
    25 00000032 0A051C052E05400552-         dw 1290, 1308, 1326, 1344, 1362, 1380, 1398, 1416
    25 0000003B 05640576058805     
    26 00000042 EA06FC060E07200732-         dw 1770, 1788, 1806, 1824, 1842, 1860, 1878, 1896
    26 0000004B 07440756076807     
    27                                  
    28                                  bricks_end_location:
    29 00000052 360348035A036C037E-         dw 822, 840, 858, 876, 894, 912, 930, 948
    29 0000005B 039003A203B403     
    30 00000062 160528053A054C055E-         dw 1302, 1320, 1338, 1356, 1374, 1392, 1410, 1428
    30 0000006B 05700582059405     
    31 00000072 F60608071A072C073E-         dw 1782, 1800, 1818, 1836, 1854, 1872, 1890, 1908
    31 0000007B 07500762077407     
    32                                  
    33 00000082 0000                    score: dw 0
    34 00000084 1800                    total_bricks: dw 24
    35 00000086 0000                    calculated_location: dw 0
    36 00000088 0000                    left_limit: dw 0
    37 0000008A 0000                    right_limit: dw 0
    38 0000008C 0000                    mid: dw 0
    39 0000008E 00                      left_or_right: db 0
    40 0000008F 0000                    preBall: dw 0
    41 00000091 03                      live: db 3
    42 00000092 0000                    end_of_game: dw 0
    43 00000094 00                      StayOnStacker: db 0
    44 00000095 00                      solid: db 0
    45 00000096 00                      solid1: db 0
    46                                  
    47 00000097 57454C434F4D452054-     welcome_str: db "WELCOME TO BRICK BREAKER"
    47 000000A0 4F20425249434B2042-
    47 000000A9 5245414B4552       
    48 000000AF 3234462D3330353320-     group_str: db '24F-3053 | 24F-3053'
    48 000000B8 7C203234462D333035-
    48 000000C1 33                 
    49 000000C2 555345204152524F57-     instructions_str: db "USE ARROW KEYS TO MOVE AND SPACE TO START"
    49 000000CB 204B45595320544F20-
    49 000000D4 4D4F564520414E4420-
    49 000000DD 535041434520544F20-
    49 000000E6 5354415254         
    50 000000EB 505245535320454E54-     play_str: db "PRESS ENTER TO PLAY GAME"
    50 000000F4 455220544F20504C41-
    50 000000FD 592047414D45       
    51 00000103 454143482042524943-     score_rule_str: db 'EACH BRICK = 5 POINTS'
    51 0000010C 4B203D203520504F49-
    51 00000115 4E5453             
    52 00000118 505245535320455343-     esc_exit_str: db 'PRESS ESC TO EXIT'
    52 00000121 20544F2045584954   
    53 00000129 594F555220544F5441-     ttl_live_str: db 'YOUR TOTAL LIVES ARE 3'
    53 00000132 4C204C495645532041-
    53 0000013B 52452033           
    54 0000013F 424F4E555320415741-     bonus_note_str: db 'BONUS AWARDED IF BREAK ALL BRICKS IN 2 MINS' 
    54 00000148 524445442049462042-
    54 00000151 5245414B20414C4C20-
    54 0000015A 425249434B5320494E-
    54 00000163 2032204D494E53     
    55 0000016A 48495454494E472052-     solid_base_str: db 'HITTING RED BRICK WILL SOLIDIFY YOUR BASE'
    55 00000173 454420425249434B20-
    55 0000017C 57494C4C20534F4C49-
    55 00000185 4449465920594F5552-
    55 0000018E 2042415345         
    56 00000193 505245535320535041-     space_bar: db 'PRESS SPACE BAR TO RELEASE BALL'
    56 0000019C 43452042415220544F-
    56 000001A5 2052454C4541534520-
    56 000001AE 42414C4C           
    57 000001B2 594F555220544F5441-     total_score_str: db 'YOUR TOTAL SCORES :'
    57 000001BB 4C2053434F52455320-
    57 000001C4 3A                 
    58 000001C5 4C495645532052454D-     lives_remain_str: db 'LIVES REMAINING'
    58 000001CE 41494E494E47       
    59 000001D4 505245535320452054-     exit_str: db 'PRESS E TO EXIT'
    59 000001DD 4F2045584954       
    60 000001E3 505245535320454E54-     quit_str: db 'PRESS ENTER+Q TO QUIT GAME'
    60 000001EC 45522B5120544F2051-
    60 000001F5 5549542047414D45   
    61 000001FD 505245535320454E54-     restart_str: db 'PRESS ENTER+R TO RESTART YOUR GAME'
    61 00000206 45522B5220544F2052-
    61 0000020F 45535441525420594F-
    61 00000218 55522047414D45     
    62 0000021F 555345205249474854-     left_arrow: db 'USE RIGHT & LEFT ARROW TO MOVE BAR'
    62 00000228 2026204C4546542041-
    62 00000231 52524F5720544F204D-
    62 0000023A 4F564520424152     
    63 00000241 594F555F4C4F5345        Lose_str: db 'YOU_LOSE'
    64 00000249 594F555F57494E21        Win_str: db 'YOU_WIN!'
    65 00000251 53434F5245              Score_str: db 'SCORE'
    66 00000256 4C49564553              Lives_str: db 'LIVES'
    67 0000025B 54494D4520              time_str: db 'TIME '
    68                                  
    69                                  sound:
    70 00000260 50                      	push ax
    71 00000261 53                      	push bx
    72 00000262 B0B6                    	mov al,182
    73 00000264 E643                    	out 43h,al
    74 00000266 B8D011                  	mov ax, 4560
    75 00000269 E642                    	out 42h,al
    76 0000026B 88E0                    	mov al,ah
    77 0000026D E642                    	out 42h,al
    78 0000026F E461                    	in al,61h
    79 00000271 0C03                    	or al,00000011b
    80 00000273 E661                    	out 61h,al
    81 00000275 BB0200                  	mov bx,2
    82                                  	pre:
    83 00000278 B9FFFF                  	mov cx,65535
    84                                  	pre1:
    85 0000027B 49                      	dec cx
    86 0000027C 75FD                    	jne pre1
    87 0000027E 4B                      	dec bx
    88 0000027F 75F7                    	jne pre
    89 00000281 E461                    	in al,61h
    90 00000283 24FC                    	and al,11111100b
    91 00000285 E661                    	out 61h,al 
    92 00000287 5B                      	pop bx
    93 00000288 58                      	pop ax
    94 00000289 C3                      	ret 
    95                                  
    96                                  sound_paddle:
    97 0000028A 50                      	push ax
    98 0000028B 53                      	push bx
    99 0000028C B0B6                    	mov al,182
   100 0000028E E643                    	out 43h,al
   101 00000290 B8E808                  	mov ax, 2280
   102 00000293 E642                    	out 42h,al
   103 00000295 88E0                    	mov al,ah
   104 00000297 E642                    	out 42h,al
   105 00000299 E461                    	in al,61h
   106 0000029B 0C03                    	or al,00000011b
   107 0000029D E661                    	out 61h,al
   108 0000029F BB0100                  	mov bx,1
   109                                  	paddle_pre:
   110 000002A2 B9FFFF                  	mov cx,65535
   111                                  	paddle_pre1:
   112 000002A5 49                      	dec cx
   113 000002A6 75FD                    	jne paddle_pre1
   114 000002A8 4B                      	dec bx
   115 000002A9 75F7                    	jne paddle_pre
   116 000002AB E461                    	in al,61h
   117 000002AD 24FC                    	and al,11111100b
   118 000002AF E661                    	out 61h,al 
   119 000002B1 5B                      	pop bx
   120 000002B2 58                      	pop ax
   121 000002B3 C3                      	ret
   122                                  
   123                                  sound_life_lost:
   124 000002B4 50                      	push ax
   125 000002B5 53                      	push bx
   126 000002B6 51                      	push cx
   127 000002B7 52                      	push dx
   128 000002B8 B0B6                    	mov al,182
   129 000002BA E643                    	out 43h,al
   130 000002BC B8401F                  	mov ax, 8000
   131 000002BF E642                    	out 42h,al
   132 000002C1 88E0                    	mov al,ah
   133 000002C3 E642                    	out 42h,al
   134 000002C5 E461                    	in al,61h
   135 000002C7 0C03                    	or al,00000011b
   136 000002C9 E661                    	out 61h,al
   137 000002CB BB0300                  	mov bx,3
   138                                  	life_pre1:
   139 000002CE B9FFFF                  	mov cx,65535
   140                                  	life_pre1_inner:
   141 000002D1 49                      	dec cx
   142 000002D2 75FD                    	jne life_pre1_inner
   143 000002D4 4B                      	dec bx
   144 000002D5 75F7                    	jne life_pre1
   145 000002D7 B81027                  	mov ax, 10000
   146 000002DA E642                    	out 42h,al
   147 000002DC 88E0                    	mov al,ah
   148 000002DE E642                    	out 42h,al
   149 000002E0 BB0300                  	mov bx,3
   150                                  	life_pre2:
   151 000002E3 B9FFFF                  	mov cx,65535
   152                                  	life_pre2_inner:
   153 000002E6 49                      	dec cx
   154 000002E7 75FD                    	jne life_pre2_inner
   155 000002E9 4B                      	dec bx
   156 000002EA 75F7                    	jne life_pre2
   157 000002EC E461                    	in al,61h
   158 000002EE 24FC                    	and al,11111100b
   159 000002F0 E661                    	out 61h,al 
   160 000002F2 5A                      	pop dx
   161 000002F3 59                      	pop cx
   162 000002F4 5B                      	pop bx
   163 000002F5 58                      	pop ax
   164 000002F6 C3                      	ret
   165                                  
   166                                  sound_game_won:
   167 000002F7 50                      	push ax
   168 000002F8 53                      	push bx
   169 000002F9 51                      	push cx
   170 000002FA 52                      	push dx
   171 000002FB B0B6                    	mov al,182
   172 000002FD E643                    	out 43h,al
   173 000002FF B8B80B                  	mov ax, 3000
   174 00000302 E642                    	out 42h,al
   175 00000304 88E0                    	mov al,ah
   176 00000306 E642                    	out 42h,al
   177 00000308 E461                    	in al,61h
   178 0000030A 0C03                    	or al,00000011b
   179 0000030C E661                    	out 61h,al
   180 0000030E BB0200                  	mov bx,2
   181                                  	won_pre1:
   182 00000311 B9FFFF                  	mov cx,65535
   183                                  	won_pre1_inner:
   184 00000314 49                      	dec cx
   185 00000315 75FD                    	jne won_pre1_inner
   186 00000317 4B                      	dec bx
   187 00000318 75F7                    	jne won_pre1
   188 0000031A B86009                  	mov ax, 2400
   189 0000031D E642                    	out 42h,al
   190 0000031F 88E0                    	mov al,ah
   191 00000321 E642                    	out 42h,al
   192 00000323 BB0200                  	mov bx,2
   193                                  	won_pre2:
   194 00000326 B9FFFF                  	mov cx,65535
   195                                  	won_pre2_inner:
   196 00000329 49                      	dec cx
   197 0000032A 75FD                    	jne won_pre2_inner
   198 0000032C 4B                      	dec bx
   199 0000032D 75F7                    	jne won_pre2
   200 0000032F B8D007                  	mov ax, 2000
   201 00000332 E642                    	out 42h,al
   202 00000334 88E0                    	mov al,ah
   203 00000336 E642                    	out 42h,al
   204 00000338 BB0200                  	mov bx,2
   205                                  	won_pre3:
   206 0000033B B9FFFF                  	mov cx,65535
   207                                  	won_pre3_inner:
   208 0000033E 49                      	dec cx
   209 0000033F 75FD                    	jne won_pre3_inner
   210 00000341 4B                      	dec bx
   211 00000342 75F7                    	jne won_pre3
   212 00000344 B8DC05                  	mov ax, 1500
   213 00000347 E642                    	out 42h,al
   214 00000349 88E0                    	mov al,ah
   215 0000034B E642                    	out 42h,al
   216 0000034D BB0400                  	mov bx,4
   217                                  	won_pre4:
   218 00000350 B9FFFF                  	mov cx,65535
   219                                  	won_pre4_inner:
   220 00000353 49                      	dec cx
   221 00000354 75FD                    	jne won_pre4_inner
   222 00000356 4B                      	dec bx
   223 00000357 75F7                    	jne won_pre4
   224 00000359 E461                    	in al,61h
   225 0000035B 24FC                    	and al,11111100b
   226 0000035D E661                    	out 61h,al 
   227 0000035F 5A                      	pop dx
   228 00000360 59                      	pop cx
   229 00000361 5B                      	pop bx
   230 00000362 58                      	pop ax
   231 00000363 C3                      	ret
   232                                  
   233                                  sound_game_lost:
   234 00000364 50                      	push ax
   235 00000365 53                      	push bx
   236 00000366 51                      	push cx
   237 00000367 52                      	push dx
   238 00000368 B0B6                    	mov al,182
   239 0000036A E643                    	out 43h,al
   240 0000036C B8B80B                  	mov ax, 3000
   241 0000036F E642                    	out 42h,al
   242 00000371 88E0                    	mov al,ah
   243 00000373 E642                    	out 42h,al
   244 00000375 E461                    	in al,61h
   245 00000377 0C03                    	or al,00000011b
   246 00000379 E661                    	out 61h,al
   247 0000037B BB0300                  	mov bx,3
   248                                  	lost_pre1:
   249 0000037E B9FFFF                  	mov cx,65535
   250                                  	lost_pre1_inner:
   251 00000381 49                      	dec cx
   252 00000382 75FD                    	jne lost_pre1_inner
   253 00000384 4B                      	dec bx
   254 00000385 75F7                    	jne lost_pre1
   255 00000387 B8A00F                  	mov ax, 4000
   256 0000038A E642                    	out 42h,al
   257 0000038C 88E0                    	mov al,ah
   258 0000038E E642                    	out 42h,al
   259 00000390 BB0300                  	mov bx,3
   260                                  	lost_pre2:
   261 00000393 B9FFFF                  	mov cx,65535
   262                                  	lost_pre2_inner:
   263 00000396 49                      	dec cx
   264 00000397 75FD                    	jne lost_pre2_inner
   265 00000399 4B                      	dec bx
   266 0000039A 75F7                    	jne lost_pre2
   267 0000039C B87017                  	mov ax, 6000
   268 0000039F E642                    	out 42h,al
   269 000003A1 88E0                    	mov al,ah
   270 000003A3 E642                    	out 42h,al
   271 000003A5 BB0300                  	mov bx,3
   272                                  	lost_pre3:
   273 000003A8 B9FFFF                  	mov cx,65535
   274                                  	lost_pre3_inner:
   275 000003AB 49                      	dec cx
   276 000003AC 75FD                    	jne lost_pre3_inner
   277 000003AE 4B                      	dec bx
   278 000003AF 75F7                    	jne lost_pre3
   279 000003B1 B82823                  	mov ax, 9000
   280 000003B4 E642                    	out 42h,al
   281 000003B6 88E0                    	mov al,ah
   282 000003B8 E642                    	out 42h,al
   283 000003BA BB0500                  	mov bx,5
   284                                  	lost_pre4:
   285 000003BD B9FFFF                  	mov cx,65535
   286                                  	lost_pre4_inner:
   287 000003C0 49                      	dec cx
   288 000003C1 75FD                    	jne lost_pre4_inner
   289 000003C3 4B                      	dec bx
   290 000003C4 75F7                    	jne lost_pre4
   291 000003C6 E461                    	in al,61h
   292 000003C8 24FC                    	and al,11111100b
   293 000003CA E661                    	out 61h,al 
   294 000003CC 5A                      	pop dx
   295 000003CD 59                      	pop cx
   296 000003CE 5B                      	pop bx
   297 000003CF 58                      	pop ax
   298 000003D0 C3                      	ret
   299                                  
   300                                  start_menu:
   301 000003D1 50                      	push ax
   302 000003D2 E83501                  	call clrscr
   303 000003D5 B83805                  	mov ax, 1336
   304 000003D8 50                      	push ax
   305 000003D9 B8[9700]                	mov ax, welcome_str
   306 000003DC 50                      	push ax
   307 000003DD B81800                  	mov ax, 24
   308 000003E0 50                      	push ax
   309 000003E1 E89A00                  	call printstr
   310 000003E4 B8DC05                  	mov ax, 1500
   311 000003E7 50                      	push ax
   312 000003E8 B8[AF00]                	mov ax, group_str
   313 000003EB 50                      	push ax
   314 000003EC B81300                  	mov ax, 19
   315 000003EF 50                      	push ax
   316 000003F0 E88B00                  	call printstr
   317 000003F3 B81807                  	mov ax, 1816
   318 000003F6 50                      	push ax
   319 000003F7 B8[2901]                	mov ax, ttl_live_str
   320 000003FA 50                      	push ax
   321 000003FB B81600                  	mov ax, 22
   322 000003FE 50                      	push ax
   323 000003FF E87C00                  	call printstr
   324 00000402 B8BA07                  	mov ax, 1978
   325 00000405 50                      	push ax
   326 00000406 B8[0301]                	mov ax, score_rule_str
   327 00000409 50                      	push ax
   328 0000040A B81500                  	mov ax, 21
   329 0000040D 50                      	push ax
   330 0000040E E86D00                  	call printstr
   331 00000411 B84808                  	mov ax, 2120
   332 00000414 50                      	push ax
   333 00000415 B8[C200]                	mov ax, instructions_str
   334 00000418 50                      	push ax
   335 00000419 B82900                  	mov ax, 41
   336 0000041C 50                      	push ax
   337 0000041D E85E00                  	call printstr
   338 00000420 B89809                  	mov ax, 2456
   339 00000423 50                      	push ax
   340 00000424 B8[EB00]                	mov ax, play_str
   341 00000427 50                      	push ax
   342 00000428 B81800                  	mov ax, 24
   343 0000042B 50                      	push ax
   344 0000042C E87D00                  	call printstr_B
   345 0000042F B83E0A                  	mov ax, 2622
   346 00000432 50                      	push ax
   347 00000433 B8[1801]                	mov ax, esc_exit_str
   348 00000436 50                      	push ax
   349 00000437 B81200                  	mov ax, 18
   350 0000043A 50                      	push ax
   351 0000043B E84000                  	call printstr
   352 0000043E 58                      	pop ax
   353 0000043F C3                      	ret
   354                                  	
   355                                  printnum: 
   356 00000440 55                      	push bp
   357 00000441 89E5                    	mov bp, sp
   358 00000443 06                      	push es
   359 00000444 50                      	push ax
   360 00000445 53                      	push bx
   361 00000446 51                      	push cx
   362 00000447 52                      	push dx
   363 00000448 57                      	push di
   364 00000449 B800B8                  	mov ax, 0xb800
   365 0000044C 8EC0                    	mov es, ax
   366 0000044E 8B4604                  	mov ax, [bp+4]
   367 00000451 BB0A00                  	mov bx, 10
   368 00000454 B90000                  	mov cx, 0
   369                                  	nextdigit: 
   370 00000457 BA0000                  		mov dx, 0
   371 0000045A F7F3                    		div bx
   372 0000045C 80C230                  		add dl, 0x30
   373 0000045F 52                      		push dx
   374 00000460 41                      		inc cx
   375 00000461 83F800                  		cmp ax, 0
   376 00000464 75F1                    		jnz nextdigit
   377 00000466 8B7E06                  	mov di, [bp+6]
   378                                  	nextpos:
   379 00000469 5A                      		pop dx
   380 0000046A B607                    		mov dh, 0x07
   381 0000046C 268915                  		mov [es:di], dx
   382 0000046F 83C702                  		add di, 2
   383 00000472 E2F5                    		loop nextpos
   384 00000474 5F                      	pop di
   385 00000475 5A                      	pop dx
   386 00000476 59                      	pop cx
   387 00000477 5B                      	pop bx
   388 00000478 58                      	pop ax
   389 00000479 07                      	pop es
   390 0000047A 5D                      	pop bp
   391 0000047B C20400                  	ret 4
   392                                  
   393                                  printstr:
   394 0000047E 55                      	push bp
   395 0000047F 89E5                    	mov bp, sp
   396 00000481 06                      	push es
   397 00000482 50                      	push ax
   398 00000483 51                      	push cx
   399 00000484 56                      	push si
   400 00000485 57                      	push di
   401 00000486 B800B8                  	mov ax, 0xb800
   402 00000489 8EC0                    	mov es, ax
   403 0000048B 8B7E08                  	mov di, [bp+8]
   404 0000048E 8B7606                  	mov si, [bp+6]
   405 00000491 8B4E04                  	mov cx, [bp+4]
   406 00000494 B407                    	mov ah, 0x07
   407                                  	nextchar: 
   408 00000496 8A04                    		mov al, [si]
   409 00000498 268905                  		mov [es:di], ax
   410 0000049B 83C702                  		add di, 2
   411 0000049E 83C601                  		add si, 1
   412 000004A1 E2F3                    		loop nextchar
   413 000004A3 5F                      	pop di
   414 000004A4 5E                      	pop si
   415 000004A5 59                      	pop cx
   416 000004A6 58                      	pop ax
   417 000004A7 07                      	pop es
   418 000004A8 5D                      	pop bp
   419 000004A9 C20600                  	ret 6
   420                                  
   421                                  printstr_B:
   422 000004AC 55                      	push bp
   423 000004AD 89E5                    	mov bp, sp
   424 000004AF 06                      	push es
   425 000004B0 50                      	push ax
   426 000004B1 51                      	push cx
   427 000004B2 56                      	push si
   428 000004B3 57                      	push di
   429 000004B4 B800B8                  	mov ax, 0xb800
   430 000004B7 8EC0                    	mov es, ax
   431 000004B9 8B7E08                  	mov di, [bp+8]
   432 000004BC 8B7606                  	mov si, [bp+6]
   433 000004BF 8B4E04                  	mov cx, [bp+4]
   434 000004C2 B48E                    	mov ah, 0x8e
   435                                  	nextchar1: 
   436 000004C4 8A04                    		mov al, [si]
   437 000004C6 268905                  		mov [es:di], ax
   438 000004C9 83C702                  		add di, 2
   439 000004CC 83C601                  		add si, 1
   440 000004CF E2F3                    		loop nextchar1
   441 000004D1 5F                      	pop di
   442 000004D2 5E                      	pop si
   443 000004D3 59                      	pop cx
   444 000004D4 58                      	pop ax
   445 000004D5 07                      	pop es
   446 000004D6 5D                      	pop bp
   447 000004D7 C20600                  	ret 6
   448                                  
   449                                  printStrings:
   450 000004DA 50                      	push ax
   451 000004DB B8A200                  	mov ax, 162
   452 000004DE 50                      	push ax
   453 000004DF B8[5102]                	mov ax, Score_str
   454 000004E2 50                      	push ax
   455 000004E3 B80500                  	mov ax, 5
   456 000004E6 50                      	push ax
   457 000004E7 E894FF                  	call printstr
   458 000004EA B8E600                  	mov ax, 230
   459 000004ED 50                      	push ax
   460 000004EE B8[5B02]                	mov ax, time_str
   461 000004F1 50                      	push ax
   462 000004F2 B80500                  	mov ax, 5
   463 000004F5 50                      	push ax
   464 000004F6 E885FF                  	call printstr
   465 000004F9 B81801                  	mov ax, 280
   466 000004FC 50                      	push ax
   467 000004FD B8[5602]                	mov ax, Lives_str
   468 00000500 50                      	push ax
   469 00000501 B80500                  	mov ax, 5
   470 00000504 50                      	push ax
   471 00000505 E876FF                  	call printstr
   472 00000508 58                      	pop ax
   473 00000509 C3                      	ret
   474                                  
   475                                  clrscr: 
   476 0000050A 06                      	push es
   477 0000050B 50                      	push ax
   478 0000050C 51                      	push cx
   479 0000050D 57                      	push di
   480 0000050E B800B8                  	mov ax, 0xb800
   481 00000511 8EC0                    	mov es, ax
   482 00000513 31FF                    	xor di, di
   483 00000515 B82007                  	mov ax, 0x0720
   484 00000518 B9D007                  	mov cx, 2000
   485 0000051B FC                      	cld
   486 0000051C F3AB                    	rep stosw
   487 0000051E 5F                      	pop di 
   488 0000051F 59                      	pop cx
   489 00000520 58                      	pop ax
   490 00000521 07                      	pop es
   491 00000522 C3                      	ret 
   492                                  
   493                                  border:
   494 00000523 50                      	push ax
   495 00000524 06                      	push es
   496 00000525 57                      	push di
   497 00000526 51                      	push cx
   498 00000527 B800B8                  	mov ax, 0xb800
   499 0000052A 8EC0                    	mov es, ax
   500 0000052C B407                    	mov ah, 0x07
   501 0000052E B0C4                    	mov al, 0xC4
   502 00000530 BFE001                  	mov di, 480
   503 00000533 B95000                  	mov cx, 80
   504 00000536 F3AB                    	rep stosw
   505 00000538 2E803E[9500]01          	cmp byte[cs:solid], 1
   506 0000053E 7504                    	jne normal_bottom
   507 00000540 B44F                    		mov ah, 0x4F
   508 00000542 EB02                    		jmp draw_bottom
   509                                  	normal_bottom:
   510 00000544 B407                    		mov ah, 0x07
   511                                  	draw_bottom:
   512 00000546 B0C4                    		mov al, 0xC4
   513 00000548 BF600E                  		mov di, 3680
   514 0000054B B95000                  		mov cx, 80
   515 0000054E F3AB                    		rep stosw
   516 00000550 B407                    	mov ah, 0x07
   517 00000552 B0B3                    	mov al, 0xB3
   518 00000554 BFE001                  	mov di, 480
   519 00000557 B91500                  	mov cx, 21
   520                                  	left_loop:
   521 0000055A 268905                  		mov word[es:di], ax
   522 0000055D 81C7A000                		add di, 160
   523 00000561 E2F7                    		loop left_loop
   524 00000563 B407                    	mov ah, 0x07
   525 00000565 B0B3                    	mov al, 0xB3
   526 00000567 BF7E02                  	mov di, 638
   527 0000056A B91500                  	mov cx, 21
   528                                  	right_loop:
   529 0000056D 268905                  		mov word[es:di], ax
   530 00000570 81C7A000                		add di, 160
   531 00000574 E2F7                    		loop right_loop
   532 00000576 BFE001                  	mov di, 480
   533 00000579 B8DA07                  	mov ax, 0x07DA
   534 0000057C 268905                  	mov word[es:di], ax
   535 0000057F BF7E02                  	mov di, 638
   536 00000582 B8BF07                  	mov ax, 0x07BF
   537 00000585 268905                  	mov word[es:di], ax
   538 00000588 BF600E                  	mov di, 3680
   539 0000058B B8C007                  	mov ax, 0x07C0
   540 0000058E 268905                  	mov word[es:di], ax
   541 00000591 BFFE0E                  	mov di, 3838
   542 00000594 B8D907                  	mov ax, 0x07D9
   543 00000597 268905                  	mov word[es:di], ax
   544 0000059A 59                      	pop cx
   545 0000059B 5F                      	pop di
   546 0000059C 07                      	pop es
   547 0000059D 58                      	pop ax
   548 0000059E C3                      	ret
   549                                  
   550                                  brick_remove:
   551 0000059F 06                      	push es
   552 000005A0 50                      	push ax
   553 000005A1 52                      	push dx
   554 000005A2 51                      	push cx
   555 000005A3 56                      	push si
   556 000005A4 53                      	push bx
   557 000005A5 57                      	push di
   558 000005A6 B800B8                  	mov ax, 0xb800
   559 000005A9 8EC0                    	mov es, ax
   560 000005AB B91800                  	mov cx, 24
   561 000005AE BE0000                  	mov si, 0
   562 000005B1 2E8B16[8600]            	mov dx, [cs:calculated_location]
   563                                  check_brick_loop:
   564 000005B6 2E8B84[2200]            	mov ax, word [cs:bricks_start_location + si]
   565 000005BB 2E8B9C[5200]            	mov bx, word [cs:bricks_end_location + si]
   566 000005C0 83F8FF                  	cmp ax, 0xFFFF
   567 000005C3 740A                    	je skip_this_brick
   568 000005C5 39C2                    	cmp dx, ax
   569 000005C7 7206                    	jb skip_this_brick
   570 000005C9 39DA                    	cmp dx, bx
   571 000005CB 7702                    	ja skip_this_brick
   572 000005CD EB07                    	jmp remove_this_brick
   573                                  skip_this_brick:
   574 000005CF 83C602                  	add si, 2
   575 000005D2 E2E2                    	loop check_brick_loop
   576 000005D4 EB45                    	jmp end_brick_remove
   577                                  remove_this_brick:
   578 000005D6 2E8BBC[2200]            	mov di, word [cs:bricks_start_location + si]
   579 000005DB 81FF4E03                	cmp di, 846
   580 000005DF 7506                    	jne not_special_brick
   581 000005E1 2EC606[9500]01          		mov byte [cs:solid], 1
   582                                  	not_special_brick:
   583 000005E7 51                      	push cx
   584 000005E8 B90600                  	mov cx, 6
   585 000005EB B82007                  	mov ax, 0x0720
   586 000005EE F3AB                    	rep stosw
   587 000005F0 59                      	pop cx
   588 000005F1 2EC784[2200]FFFF        	mov word [cs:bricks_start_location + si], 0xFFFF
   589 000005F8 2EC784[5200]FFFF        	mov word [cs:bricks_end_location + si], 0xFFFF
   590 000005FF E85EFC                  	call sound
   591 00000602 2E8306[8200]05          	add word [cs:score], 5
   592 00000608 2EFF0E[8400]            	dec word [cs:total_bricks]
   593 0000060D 50                      	push ax
   594 0000060E B8AE00                  	mov ax, 174
   595 00000611 50                      	push ax
   596 00000612 2EFF36[8200]            	push word [cs:score]
   597 00000617 E826FE                  	call printnum
   598 0000061A 58                      	pop ax
   599                                  end_brick_remove:
   600 0000061B 5F                      	pop di
   601 0000061C 5B                      	pop bx
   602 0000061D 5E                      	pop si
   603 0000061E 59                      	pop cx
   604 0000061F 5A                      	pop dx
   605 00000620 58                      	pop ax
   606 00000621 07                      	pop es
   607 00000622 C3                      	ret
   608                                  
   609                                  bricks:
   610 00000623 06                      	push es
   611 00000624 51                      	push cx
   612 00000625 53                      	push bx
   613 00000626 56                      	push si
   614 00000627 57                      	push di
   615 00000628 B800B8                  	mov ax, 0xb800
   616 0000062B 8EC0                    	mov es, ax
   617 0000062D BE0000                  	mov si, 0
   618 00000630 FC                      	cld
   619                                  row1_start:
   620 00000631 BF2A03                  	mov di, 810
   621 00000634 B90800                  	mov cx, 8
   622                                  row1_loop:
   623 00000637 51                      	push cx
   624 00000638 B410                    	mov ah, 0x10
   625 0000063A B020                    	mov al, 0x20
   626 0000063C B90600                  	mov cx, 6
   627 0000063F F3AB                    	rep stosw
   628 00000641 B90300                  	mov cx, 3
   629 00000644 B82007                  	mov ax, 0x0720
   630 00000647 F3AB                    	rep stosw
   631 00000649 59                      	pop cx
   632 0000064A E2EB                    	loop row1_loop
   633                                  row2_start:
   634 0000064C BF0A05                  	mov di, 1290
   635 0000064F B90800                  	mov cx, 8
   636                                  row2_loop:
   637 00000652 51                      	push cx
   638 00000653 B420                    	mov ah, 0x20
   639 00000655 B020                    	mov al, 0x20
   640 00000657 B90600                  	mov cx, 6
   641 0000065A F3AB                    	rep stosw
   642 0000065C B90300                  	mov cx, 3
   643 0000065F B82007                  	mov ax, 0x0720
   644 00000662 F3AB                    	rep stosw
   645 00000664 59                      	pop cx
   646 00000665 E2EB                    	loop row2_loop
   647                                  row3_start:
   648 00000667 BFEA06                  	mov di, 1770
   649 0000066A B90800                  	mov cx, 8
   650                                  row3_loop:
   651 0000066D 51                      	push cx
   652 0000066E B430                    	mov ah, 0x30
   653 00000670 B020                    	mov al, 0x20
   654 00000672 B90600                  	mov cx, 6
   655 00000675 F3AB                    	rep stosw
   656 00000677 B90300                  	mov cx, 3
   657 0000067A B82007                  	mov ax, 0x0720
   658 0000067D F3AB                    	rep stosw
   659 0000067F 59                      	pop cx
   660 00000680 E2EB                    	loop row3_loop
   661                                  
   662 00000682 5F                      	pop di
   663 00000683 5E                      	pop si
   664 00000684 5B                      	pop bx
   665 00000685 59                      	pop cx
   666 00000686 07                      	pop es
   667 00000687 C3                      	ret
   668                                  
   669                                  clearStacker:
   670 00000688 55                      	push bp
   671 00000689 89E5                    	mov bp, sp
   672 0000068B 06                      	push es
   673 0000068C 50                      	push ax
   674 0000068D 57                      	push di
   675 0000068E 51                      	push cx
   676 0000068F B800B8                  	mov ax, 0xb800
   677 00000692 8EC0                    	mov es, ax
   678 00000694 B82007                  	mov ax, 0x0720
   679 00000697 B90F00                  	mov cx, 15
   680 0000069A 8B7E04                  	mov di, [bp+4]
   681 0000069D F3AB                    	rep stosw
   682 0000069F 2E8B3E[8F00]            	mov di, [cs:preBall]
   683 000006A4 268905                  	mov word[es:di], ax
   684 000006A7 59                      	pop cx
   685 000006A8 5F                      	pop di
   686 000006A9 58                      	pop ax
   687 000006AA 07                      	pop es
   688 000006AB 5D                      	pop bp
   689 000006AC C20200                  	ret 2
   690                                  
   691                                  printStacker:
   692 000006AF 55                      	push bp
   693 000006B0 89E5                    	mov bp, sp
   694 000006B2 06                      	push es
   695 000006B3 50                      	push ax
   696 000006B4 57                      	push di
   697 000006B5 51                      	push cx
   698 000006B6 B800B8                  	mov ax, 0xb800
   699 000006B9 8EC0                    	mov es, ax
   700 000006BB B020                    	mov al, 0x20
   701 000006BD B470                    	mov ah, 0x70
   702 000006BF B90F00                  	mov cx, 15
   703 000006C2 8B7E04                  	mov di, [bp+4]
   704 000006C5 2E893E[8800]            	mov word[cs:left_limit], di
   705 000006CA F3AB                    	rep stosw
   706 000006CC 83EF02                  	sub di, 2
   707 000006CF 2E893E[8A00]            	mov word[cs:right_limit], di
   708 000006D4 2EA1[8A00]              	mov ax, word[cs:right_limit]
   709 000006D8 83E80E                  	sub ax, 14
   710 000006DB 2EA3[8C00]              	mov word[cs:mid], ax
   711 000006DF 2DA000                  	sub ax, 160
   712 000006E2 89C7                    	mov di, ax
   713 000006E4 D1E8                    	shr ax, 1
   714 000006E6 2D9006                  	sub ax, 1680
   715 000006E9 89C1                    	mov cx, ax
   716 000006EB 2E803E[9400]01          	cmp byte[cs:StayOnStacker], 1
   717 000006F1 752F                    	jne endi
   718 000006F3 B06F                    		mov al, 'o'
   719 000006F5 B407                    		mov ah, 0x07
   720 000006F7 268905                  		mov word[es:di], ax
   721 000006FA 2E893E[8F00]            		mov [cs:preBall], di
   722 000006FF 2EC706[0A00]1500        		mov word[cs:row], 21
   723 00000706 2E890E[0800]            		mov word[cs:colume], cx
   724 0000070B 2E893E[0F00]            		mov word[cs:previous], di
   725 00000710 2EC606[0E00]01          		mov byte[cs:ball_angle], 1
   726 00000716 2EC606[0C00]01          		mov byte[cs:incC], 1
   727 0000071C 2EC606[0D00]00          		mov byte[cs:incR], 0
   728                                  	endi:
   729 00000722 59                      	pop cx
   730 00000723 5F                      	pop di
   731 00000724 58                      	pop ax
   732 00000725 07                      	pop es
   733 00000726 5D                      	pop bp
   734 00000727 C20200                  	ret 2
   735                                  
   736                                  stacker:
   737 0000072A 50                      	push ax
   738 0000072B 57                      	push di
   739 0000072C 2E833E[1600]01          	cmp word[cs:right_], 1
   740 00000732 740A                    	je movRight
   741 00000734 2E833E[1800]01          	cmp word[cs:left_], 1
   742 0000073A 7423                    	je movLeft
   743 0000073C EB40                    	jmp exit1
   744                                  	movRight:
   745 0000073E 2EA1[1A00]              		mov ax, word[cs:pre_stack_pos]
   746 00000742 83C008                  		add ax, 8
   747 00000745 2E3B06[1400]            		cmp ax, word[cs:right_edge]
   748 0000074A 7732                    		ja exit1
   749 0000074C 2E8B3E[1A00]            			mov di, word[cs:pre_stack_pos]
   750 00000751 57                      			push di
   751 00000752 E833FF                  			call clearStacker
   752 00000755 50                      			push ax
   753 00000756 E856FF                  			call printStacker
   754 00000759 2EA3[1A00]              			mov word[cs:pre_stack_pos], ax
   755 0000075D EB1F                    			jmp exit1
   756                                  	movLeft:
   757 0000075F 2EA1[1A00]              		mov ax, word[cs:pre_stack_pos]
   758 00000763 83E808                  		sub ax, 8
   759 00000766 2E3B06[1200]            		cmp ax, word[cs:left_edge]
   760 0000076B 7211                    		jb exit1
   761 0000076D 2E8B3E[1A00]            			mov di, word[cs:pre_stack_pos]
   762 00000772 57                      			push di
   763 00000773 E812FF                  			call clearStacker
   764 00000776 50                      			push ax
   765 00000777 E835FF                  			call printStacker
   766 0000077A 2EA3[1A00]              			mov word[cs:pre_stack_pos], ax
   767                                  	exit1:
   768 0000077E 5F                      		pop di
   769 0000077F 58                      		pop ax
   770 00000780 C3                      	ret
   771                                  
   772                                  calculate_position: 
   773 00000781 55                      	push bp
   774 00000782 89E5                    	mov bp, sp
   775 00000784 50                      	push ax
   776 00000785 B050                    	mov al, 80
   777 00000787 F66604                  	mul byte[bp+4]
   778 0000078A 034606                  	add ax, [bp+6]
   779 0000078D D1E0                    	shl ax, 1
   780 0000078F 2EA3[8600]              	mov word[cs:calculated_location], ax
   781 00000793 58                      	pop ax
   782 00000794 5D                      	pop bp
   783 00000795 C20400                  	ret 4
   784                                  
   785                                  nextposition:
   786 00000798 50                      	push ax
   787 00000799 53                      	push bx
   788 0000079A 51                      	push cx
   789 0000079B 2EA0[0C00]              	mov al, [cs:incC]
   790 0000079F 2E8A26[0D00]            	mov ah, [cs:incR]
   791 000007A4 2E8B1E[0800]            	mov bx, [cs:colume]
   792 000007A9 2E8B0E[0A00]            	mov cx, [cs:row]
   793 000007AE 2E833E[0800]03          	cmp word[cs:colume], 3
   794 000007B4 750A                    	jne check_right_wall_next
   795 000007B6 B001                    		mov al, 1
   796 000007B8 2EC606[0E00]01          		mov byte[cs:ball_angle], 1
   797 000007BE EB10                    		jmp rowCheck3
   798                                  	check_right_wall_next:
   799 000007C0 2E833E[0800]4D          	cmp word[cs:colume], 77
   800 000007C6 7508                    	jne rowCheck3
   801 000007C8 B000                    		mov al, 0
   802 000007CA 2EC606[0E00]01          		mov byte[cs:ball_angle], 1
   803                                  	rowCheck3:
   804 000007D0 2E833E[0A00]04          		cmp word[cs:row], 4
   805 000007D6 7504                    		jne nextcond5
   806 000007D8 B401                    			mov ah, 1
   807 000007DA EB0A                    			jmp printingLocation1
   808                                  		nextcond5:
   809 000007DC 2E833E[0A00]16          			cmp word[cs:row], 22
   810 000007E2 7502                    			jne printingLocation1
   811 000007E4 B400                    				mov ah, 0
   812                                  	printingLocation1:
   813 000007E6 2E803E[0E00]00          		cmp byte[cs:ball_angle], 0
   814 000007EC 740E                    		je skip_horizontal_nextpos
   815 000007EE 3C01                    		cmp al, 1
   816 000007F0 7505                    		jne nextcond6
   817 000007F2 83C301                  			add bx, 1
   818 000007F5 EB05                    			jmp rowCheck4
   819                                  		nextcond6:
   820 000007F7 83EB01                  			sub bx, 1
   821 000007FA EB00                    			jmp rowCheck4
   822                                  	skip_horizontal_nextpos:
   823                                  	rowCheck4:
   824 000007FC 80FC01                  		cmp ah, 1
   825 000007FF 7505                    		jne nextcond7
   826 00000801 83C101                  			add cx, 1
   827 00000804 EB03                    			jmp calculatelocation1
   828                                  		nextcond7:
   829 00000806 83E901                  			sub cx, 1
   830                                  	calculatelocation1:
   831 00000809 53                      		push bx
   832 0000080A 51                      		push cx
   833 0000080B E873FF                  		call calculate_position
   834 0000080E 59                      	pop cx
   835 0000080F 5B                      	pop bx
   836 00000810 58                      	pop ax
   837 00000811 C3                      	ret
   838                                  
   839                                  left_right:
   840 00000812 50                      	push ax
   841 00000813 2EA1[8600]              	mov ax, word[cs:calculated_location]
   842 00000817 2E3B06[8C00]            	cmp ax, [cs:mid]
   843 0000081C 770F                    	ja check_right
   844 0000081E 2E3B06[8800]            	cmp ax, [cs:left_limit]
   845 00000823 7215                    	jb endit
   846 00000825 2EC606[8E00]00          	mov byte[cs:left_or_right], 0
   847 0000082B EB0D                    	jmp endit
   848                                  	check_right:
   849 0000082D 2E3B06[8A00]            	cmp ax, [cs:right_limit]
   850 00000832 7706                    	ja endit
   851 00000834 2EC606[8E00]01          	mov byte[cs:left_or_right], 1
   852                                  	endit:
   853 0000083A 58                      	pop ax
   854 0000083B C3                      	ret
   855                                  
   856                                  check_middle_paddle:
   857 0000083C 50                      	push ax
   858 0000083D 53                      	push bx
   859 0000083E 2EA1[8600]              	mov ax, word[cs:calculated_location]
   860 00000842 2E8B1E[8C00]            	mov bx, word[cs:mid]
   861 00000847 83EB05                  	sub bx, 5
   862 0000084A 39D8                    	cmp ax, bx
   863 0000084C 7214                    	jb not_middle_paddle
   864 0000084E 2E8B1E[8C00]            	mov bx, word[cs:mid]
   865 00000853 83C305                  	add bx, 5
   866 00000856 39D8                    	cmp ax, bx
   867 00000858 7708                    	ja not_middle_paddle
   868 0000085A 2EC606[8E00]02          	mov byte[cs:left_or_right], 2
   869 00000860 EB03                    	jmp end_middle_check
   870                                  not_middle_paddle:
   871 00000862 E8ADFF                  	call left_right
   872                                  end_middle_check:
   873 00000865 5B                      	pop bx
   874 00000866 58                      	pop ax
   875 00000867 C3                      	ret
   876                                  
   877                                  ball:
   878 00000868 06                      	push es
   879 00000869 50                      	push ax
   880 0000086A 53                      	push bx
   881 0000086B 51                      	push cx
   882 0000086C 57                      	push di
   883 0000086D B800B8                  	mov ax, 0xb800
   884 00000870 8EC0                    	mov es, ax
   885 00000872 2E8B3E[0F00]            	mov di, [cs:previous]
   886 00000877 26C7052007              	mov word[es:di], 0x0720
   887 0000087C E819FF                  	call nextposition
   888 0000087F 2E8B3E[8600]            	mov di, [cs:calculated_location]
   889 00000884 268B05                  	mov ax, word[es:di]
   890 00000887 80FC70                  	cmp ah, 0x70
   891 0000088A 7416                    	je paddle_collision
   892 0000088C 80FC07                  	cmp ah, 0x07
   893 0000088F 0F848800                	je R
   894 00000893 80FC40                  	cmp ah, 0x40
   895 00000896 744A                    	je ceiling_collision
   896 00000898 80FCB0                  	cmp ah, 0xb0
   897 0000089B 7447                    	je border_collision
   898 0000089D E8FFFC                  	call brick_remove
   899 000008A0 EB5B                    	jmp reflect_vertical
   900                                  paddle_collision:
   901 000008A2 E8E5F9                  	call sound_paddle
   902 000008A5 E894FF                  	call check_middle_paddle
   903 000008A8 2EC606[0D00]00          	mov byte[cs:incR], 0
   904 000008AE 2E803E[8E00]02          	cmp byte[cs:left_or_right], 2
   905 000008B4 7424                    	je hit_middle_paddle
   906 000008B6 2E803E[8E00]01          	cmp byte[cs:left_or_right], 1
   907 000008BC 750E                    	jne hit_left_side
   908 000008BE 2EC606[0E00]01          		mov byte[cs:ball_angle], 1
   909 000008C4 2EC606[0C00]01          		mov byte[cs:incC], 1
   910 000008CA EB4F                    		jmp R
   911                                  	hit_left_side:
   912 000008CC 2EC606[0E00]01          		mov byte[cs:ball_angle], 1
   913 000008D2 2EC606[0C00]00          		mov byte[cs:incC], 0
   914 000008D8 EB41                    		jmp R
   915                                  hit_middle_paddle:
   916 000008DA 2EC606[0E00]00          	mov byte[cs:ball_angle], 0
   917 000008E0 EB39                    	jmp R
   918                                  ceiling_collision:
   919 000008E2 EB19                    	jmp reflect_vertical
   920                                  border_collision:
   921 000008E4 E82BFF                  	call left_right
   922 000008E7 2E803E[8E00]01          	cmp byte[cs:left_or_right], 1
   923 000008ED 7508                    	jne border_left
   924 000008EF 2EC606[0C00]01          		mov byte[cs:incC], 1
   925 000008F5 EB06                    		jmp reflect_vertical
   926                                  	border_left:
   927 000008F7 2EC606[0C00]00          		mov byte[cs:incC], 0
   928                                  reflect_vertical:
   929 000008FD 2E803E[0D00]01          	cmp byte[cs:incR], 1
   930 00000903 7508                    	jne r1
   931 00000905 2EC606[0D00]00          		mov byte[cs:incR], 0
   932 0000090B EB0E                    		jmp R
   933                                  	r1:
   934 0000090D 2E803E[0D00]00          		cmp byte[cs:incR], 0
   935 00000913 7506                    		jne R
   936 00000915 2EC606[0D00]01          			mov byte[cs:incR], 1
   937                                  R:
   938 0000091B 2E833E[0800]03          	cmp word[cs:colume], 3
   939 00000921 750E                    	jne nextcond
   940 00000923 2EC606[0C00]01          		mov byte[cs:incC], 1
   941 00000929 2EC606[0E00]01          		mov byte[cs:ball_angle], 1
   942 0000092F EB14                    		jmp rowCheck
   943                                  	nextcond:
   944 00000931 2E833E[0800]4D          		cmp word[cs:colume], 77
   945 00000937 750C                    		jne rowCheck
   946 00000939 2EC606[0C00]00          			mov byte[cs:incC], 0
   947 0000093F 2EC606[0E00]01          			mov byte[cs:ball_angle], 1
   948                                  	rowCheck:
   949 00000945 2E833E[0A00]04          		cmp word[cs:row], 4
   950 0000094B 7508                    		jne nextcond1
   951 0000094D 2EC606[0D00]01          			mov byte[cs:incR], 1
   952 00000953 EB79                    			jmp printingLocation
   953                                  	nextcond1:
   954 00000955 2E803E[9500]00          		cmp byte[cs:solid], 0
   955 0000095B 7563                    		jne solid12
   956 0000095D 2E833E[0A00]16          			cmp word[cs:row], 22
   957 00000963 7569                    			jne printingLocation
   958 00000965 E84CF9                  				call sound_life_lost
   959 00000968 2EC606[9400]01          				mov byte[cs:StayOnStacker], 1
   960 0000096E 2EA1[8C00]              				mov ax, word[cs:mid]
   961 00000972 2DA000                  				sub ax, 160
   962 00000975 89C7                    				mov di, ax
   963 00000977 D1E8                    				shr ax, 1
   964 00000979 2D9006                  				sub ax, 1680
   965 0000097C 89C1                    				mov cx, ax
   966 0000097E B06F                    				mov al, 'o'
   967 00000980 B407                    				mov ah, 0x07
   968 00000982 268905                  				mov word[es:di], ax
   969 00000985 2E893E[8F00]            				mov [cs:preBall], di
   970 0000098A 2EC706[0A00]1500        				mov word[cs:row], 21
   971 00000991 2E890E[0800]            				mov word[cs:colume], cx
   972 00000996 2E893E[0F00]            				mov word[cs:previous], di
   973 0000099B 2EC606[0E00]01          				mov byte[cs:ball_angle], 1
   974 000009A1 2EC606[0C00]01          				mov byte[cs:incC], 1
   975 000009A7 2EC606[0D00]00          				mov byte[cs:incR], 0
   976 000009AD 2E802E[9100]01          				sub byte[cs:live], 1
   977 000009B3 E83902                  				call print_lives
   978 000009B6 2E803E[9100]00          				cmp byte[cs:live], 0
   979 000009BC 7563                    				jne endii
   980 000009BE EB61                    				jmp endii
   981                                  	solid12:
   982 000009C0 2E833E[0A00]17          		cmp word[cs:row], 23
   983 000009C6 7506                    		jne printingLocation
   984 000009C8 2EC606[0D00]00          			mov byte[cs:incR], 0
   985                                  	printingLocation:
   986 000009CE 2E803E[0E00]00          		cmp byte[cs:ball_angle], 0
   987 000009D4 7418                    		je skip_horizontal_update
   988 000009D6 2E803E[0C00]01          		cmp byte[cs:incC], 1
   989 000009DC 7508                    		jne nextcond2
   990 000009DE 2E8306[0800]01          			add word[cs:colume], 1
   991 000009E4 EB08                    			jmp rowCheck1
   992                                  		nextcond2:
   993 000009E6 2E832E[0800]01          			sub word[cs:colume], 1
   994 000009EC EB00                    			jmp rowCheck1
   995                                  	skip_horizontal_update:
   996                                  	rowCheck1:
   997 000009EE 2E803E[0D00]01          		cmp byte[cs:incR], 1
   998 000009F4 7508                    		jne nextcond3
   999 000009F6 2E8306[0A00]01          			add word[cs:row], 1
  1000 000009FC EB06                    			jmp calculatelocation
  1001                                  		nextcond3:
  1002 000009FE 2E832E[0A00]01          			sub word[cs:row], 1
  1003                                  	calculatelocation:
  1004 00000A04 2EA1[0A00]              		mov ax, word[cs:row]
  1005 00000A08 BB5000                  		mov bx, 80
  1006 00000A0B F7E3                    		mul bx
  1007 00000A0D 2E0306[0800]            		add ax, word[cs:colume]
  1008 00000A12 D1E0                    		shl ax, 1
  1009 00000A14 89C7                    		mov di, ax
  1010 00000A16 2EA3[0F00]              		mov word[cs:previous], ax
  1011 00000A1A B407                    	mov ah, 0x07
  1012 00000A1C B06F                    	mov al, 'o'
  1013 00000A1E 268905                  	mov word[es:di], ax
  1014                                  	endii:
  1015 00000A21 5F                      	pop di
  1016 00000A22 59                      	pop cx
  1017 00000A23 5B                      	pop bx
  1018 00000A24 58                      	pop ax
  1019 00000A25 07                      	pop es
  1020 00000A26 C3                      	ret
  1021                                  
  1022 00000A27 00                      call_instruction_menu: db 0
  1023                                  
  1024                                  instruction_menu:
  1025 00000A28 50                      	push ax
  1026 00000A29 E8DEFA                  	call clrscr
  1027 00000A2C B87201                  	mov ax, 370
  1028 00000A2F 50                      	push ax
  1029 00000A30 B8[C200]                	mov ax, instructions_str
  1030 00000A33 50                      	push ax
  1031 00000A34 B80B00                  	mov ax, 11
  1032 00000A37 50                      	push ax
  1033 00000A38 E871FA                  	call printstr_B
  1034 00000A3B B8B202                  	mov ax, 690
  1035 00000A3E 50                      	push ax
  1036 00000A3F B8[2901]                	mov ax, ttl_live_str
  1037 00000A42 50                      	push ax
  1038 00000A43 B81600                  	mov ax, 22
  1039 00000A46 50                      	push ax
  1040 00000A47 E834FA                  	call printstr
  1041 00000A4A B8F203                  	mov ax, 1010
  1042 00000A4D 50                      	push ax
  1043 00000A4E B8[EB00]                	mov ax, play_str
  1044 00000A51 50                      	push ax
  1045 00000A52 B81800                  	mov ax, 24
  1046 00000A55 50                      	push ax
  1047 00000A56 E825FA                  	call printstr
  1048 00000A59 B83205                  	mov ax, 1330
  1049 00000A5C 50                      	push ax
  1050 00000A5D B8[6A01]                	mov ax, solid_base_str
  1051 00000A60 50                      	push ax
  1052 00000A61 B82900                  	mov ax, 41
  1053 00000A64 50                      	push ax
  1054 00000A65 E816FA                  	call printstr
  1055 00000A68 B87206                  	mov ax, 1650
  1056 00000A6B 50                      	push ax
  1057 00000A6C B8[3F01]                	mov ax, bonus_note_str
  1058 00000A6F 50                      	push ax
  1059 00000A70 B82B00                  	mov ax, 43
  1060 00000A73 50                      	push ax
  1061 00000A74 E807FA                  	call printstr
  1062 00000A77 B8B207                  	mov ax, 1970
  1063 00000A7A 50                      	push ax
  1064 00000A7B B8[9301]                	mov ax, space_bar
  1065 00000A7E 50                      	push ax
  1066 00000A7F B81F00                  	mov ax, 31
  1067 00000A82 50                      	push ax
  1068 00000A83 E8F8F9                  	call printstr
  1069 00000A86 B8F208                  	mov ax, 2290
  1070 00000A89 50                      	push ax
  1071 00000A8A B8[1F02]                	mov ax, left_arrow
  1072 00000A8D 50                      	push ax
  1073 00000A8E B82200                  	mov ax, 34
  1074 00000A91 50                      	push ax
  1075 00000A92 E8E9F9                  	call printstr
  1076 00000A95 B8320A                  	mov ax, 2610
  1077 00000A98 50                      	push ax
  1078 00000A99 B8[D401]                	mov ax, exit_str
  1079 00000A9C 50                      	push ax
  1080 00000A9D B80F00                  	mov ax, 15
  1081 00000AA0 50                      	push ax
  1082 00000AA1 E8DAF9                  	call printstr
  1083 00000AA4 58                      	pop ax
  1084 00000AA5 C3                      	ret
  1085                                  kbisr: 
  1086 00000AA6 50                      	push ax
  1087 00000AA7 06                      	push es
  1088                                  	
  1089 00000AA8 2EC706[1600]0000        	mov word[cs:right_] , 0
  1090 00000AAF 2EC706[1800]0000        	mov word[cs:left_] , 0
  1091 00000AB6 B800B8                  	mov ax, 0xb800
  1092 00000AB9 8EC0                    	mov es, ax 
  1093                                  	
  1094 00000ABB E460                    	in al, 0x60 ; read a char from keyboard port
  1095                                  	
  1096 00000ABD 803E[0300]00            	cmp byte[start_game] , 0
  1097 00000AC2 7527                    	jne main_game
  1098                                  
  1099 00000AC4 3C01                    	cmp al, 0x01    ; ESC key
  1100 00000AC6 7508                    	jne check_enter
  1101 00000AC8 E83FFA                  		call clrscr
  1102 00000ACB B8004C                  	    mov ax, 0x4c00
  1103 00000ACE CD21                    	    int 0x21        ; Exit program
  1104                                  
  1105                                  	check_enter:
  1106 00000AD0 3C1C                    	cmp al , 0x1c   ; Enter key
  1107 00000AD2 7507                    	jne cmp_instruction
  1108 00000AD4 C606[0300]01            	mov byte[start_game] , 1
  1109 00000AD9 EB79                    	jmp exit
  1110                                  	
  1111                                  cmp_instruction:
  1112 00000ADB 3C17                    	cmp al , 0x17
  1113 00000ADD 7575                    	jne exit
  1114 00000ADF C606[270A]01            	mov byte[call_instruction_menu] , 1
  1115                                  	
  1116 00000AE4 803E[0300]01            	cmp byte[start_game] , 1
  1117 00000AE9 7569                    	jne exit
  1118                                  main_game:
  1119 00000AEB 3C4B                    	cmp al, 0x4b ; left arrow
  1120 00000AED 750C                    	jne nextcmp ; no, try next comparison
  1121 00000AEF 2EC706[1800]0100        		mov word[cs:left_] , 1
  1122 00000AF6 E831FC                  		call stacker ; 
  1123 00000AF9 EB59                    		jmp exit ; leave interrupt routine
  1124                                  	nextcmp: 
  1125 00000AFB 3C4D                    		cmp al, 0x4d ; right arrow
  1126 00000AFD 750C                    		jne nextcmp2  ; no, leave interrupt routine
  1127 00000AFF 2EC706[1600]0100        			mov word[cs:right_] , 1
  1128 00000B06 E821FC                  			call stacker
  1129 00000B09 EB49                    			jmp exit
  1130                                  	nextcmp2: 
  1131 00000B0B 3CAD                    		cmp al, 0xad ; has the A key released
  1132 00000B0D 7502                    		jne nextcmp3 ; no, try next comparison
  1133                                  		;leave interrupt routine
  1134 00000B0F EB43                    		jmp exit
  1135                                  	nextcmp3: 
  1136 00000B11 3CAB                    		cmp al, 0xab ; has the D key released
  1137 00000B13 7502                    		jne nextcmp4 ; no, chain to old ISR
  1138 00000B15 EB3D                    		jmp exit 
  1139                                  	nextcmp4:
  1140 00000B17 3C39                    		cmp al,0x39 ; space bar
  1141 00000B19 7508                    		jne nextcmp5
  1142 00000B1B 2EC606[9400]00          			mov byte[cs:StayOnStacker],0
  1143 00000B21 EB31                    		jmp exit
  1144                                  	nextcmp5:
  1145 00000B23 3CB9                    		cmp al,0xb9 ; has the space bar released
  1146 00000B25 7502                    		jne exitcmp
  1147 00000B27 EB2B                    		jmp exit
  1148                                  		
  1149                                  	exitcmp: 
  1150 00000B29 3C12                    		cmp al,0x12 ; has the E key released
  1151 00000B2B 7508                    		jne quitcmp
  1152 00000B2D 2EC606[180C]01          		mov byte[cs:end_game] , 1
  1153 00000B33 EB1F                    		jmp exit
  1154                                  	quitcmp:
  1155 00000B35 3C10                    		cmp al , 0x10 ; has the Q key released
  1156 00000B37 7508                    		jne restartcmp
  1157 00000B39 2EC606[050D]01          		mov byte[cs:quit] , 1
  1158 00000B3F EB13                    		jmp exit
  1159                                  	restartcmp:
  1160 00000B41 3C13                    		cmp al , 0x13 ; has the R key released
  1161 00000B43 7508                    		jne nomatch
  1162 00000B45 2EC606[040D]01          		mov byte[cs:restart] , 1
  1163 00000B4B EB07                    		jmp exit
  1164                                  	nomatch: 
  1165 00000B4D 07                      		pop es
  1166 00000B4E 58                      		pop ax
  1167 00000B4F 2EFF2E[0400]            		jmp far [cs:oldisr] 
  1168                                  	exit:
  1169 00000B54 B020                    		mov al, 0x20
  1170 00000B56 E620                    		out 0x20, al 
  1171 00000B58 07                      	pop es
  1172 00000B59 58                      	pop ax 
  1173 00000B5A CF                      iret 
  1174                                  
  1175                                  timer: 
  1176 00000B5B 2E803E[0300]01          	cmp byte[cs:start_game],1
  1177 00000B61 755E                    	jne pp
  1178 00000B63 2EFE06[1F00]            		inc byte[cs:clock]
  1179 00000B68 2E803E[1F00]12          		cmp byte[cs:clock],18
  1180 00000B6E 750C                    		jne ppp
  1181 00000B70 2E8306[1C00]01          			add word[cs:second],1
  1182 00000B76 2EC606[1F00]00          			mov byte[cs:clock],0
  1183                                  		ppp:
  1184 00000B7C 2E803E[9500]01          		cmp byte[cs:solid],1
  1185 00000B82 7513                    		jne po
  1186 00000B84 2EFE06[9600]            			inc byte[cs:solid1]
  1187 00000B89 2E803E[9600]B4          			cmp byte[cs:solid1],180
  1188 00000B8F 7506                    			jne po
  1189 00000B91 2EC606[9500]00          				mov byte[cs:solid],0
  1190                                  		po:
  1191 00000B97 2EFF06[2000]            		inc word[cs:bonus]
  1192 00000B9C 2E813E[2000]7008        		cmp word[cs:bonus],2160
  1193 00000BA3 770E                    		jnbe pk
  1194 00000BA5 2E833E[8400]00          			cmp word[cs:total_bricks],0
  1195 00000BAB 7506                    			jne pk
  1196 00000BAD 2E8306[8200]32          				add word[cs:score],50
  1197                                  		pk:
  1198 00000BB3 50                      		push ax
  1199 00000BB4 B8F200                  		mov ax , 242
  1200 00000BB7 50                      		push ax
  1201 00000BB8 2EA1[1C00]              		mov ax , word[cs:second]
  1202 00000BBC 50                      		push ax
  1203 00000BBD E880F8                  		call printnum
  1204 00000BC0 58                      		pop ax
  1205                                  	pp:
  1206 00000BC1 2E803E[9400]00          	cmp byte[cs:StayOnStacker],0
  1207 00000BC7 7521                    	jne endof
  1208 00000BC9 2E803E[0300]01          	cmp byte[cs:start_game] , 1
  1209 00000BCF 7519                    	jne endof
  1210 00000BD1 2EFE06[1100]            		inc byte[cs:tickcount]
  1211 00000BD6 2E803E[1100]02          		cmp byte[cs:tickcount], 2
  1212 00000BDC 750C                    		jne endof
  1213 00000BDE E887FC                  			call ball
  1214 00000BE1 E83FF9                  			call border
  1215 00000BE4 2EC606[1100]00          			mov byte[cs:tickcount],0
  1216                                  			;jmp endiii
  1217                                  		endof:
  1218                                  		;cmp byte[cs:live],0
  1219                                  		;jne endiii
  1220                                  			;call youLose
  1221                                  		;endiii:
  1222 00000BEA B020                    		mov al, 0x20
  1223 00000BEC E620                    		out 0x20, al ; end of interrupt
  1224 00000BEE CF                      iret ; return from interrupt 
  1225                                  
  1226                                  print_lives:
  1227 00000BEF 50                      	push ax
  1228 00000BF0 06                      	push es
  1229                                  	
  1230 00000BF1 B800B8                  	mov ax , 0xb800
  1231 00000BF4 8EC0                    	mov es , ax
  1232 00000BF6 B90300                  	mov cx , 3
  1233 00000BF9 B82007                  	mov ax , 0x0720
  1234 00000BFC BF2401                  	mov di , 292
  1235 00000BFF F3AB                    	rep stosw
  1236                                  	
  1237 00000C01 2E8A0E[9100]            	mov cl , byte[cs:live]
  1238 00000C06 B500                    	mov ch , 0
  1239 00000C08 B407                    	mov ah , 0x07
  1240 00000C0A B02A                    	mov al , '*'
  1241 00000C0C BF2401                  	mov di , 292
  1242 00000C0F F3AB                    	rep stosw
  1243                                  	
  1244 00000C11 07                      	pop es
  1245 00000C12 58                      	pop ax
  1246 00000C13 C3                      ret
  1247                                  
  1248 00000C14 00000000                oldtmr: dd 0
  1249 00000C18 00                      end_game: db 0
  1250                                  start:
  1251                                  	
  1252 00000C19 31C0                    	xor ax, ax
  1253 00000C1B 8EC0                    	mov es, ax ; point es to IVT base
  1254                                  	
  1255 00000C1D 26A12400                	mov ax, [es:9*4]
  1256 00000C21 A3[0400]                	mov [oldisr], ax ; save offset of old routine
  1257 00000C24 26A12600                	mov ax, [es:9*4+2]
  1258 00000C28 A3[0600]                	mov [oldisr+2], ax ; save segment of old routine
  1259                                  	
  1260 00000C2B 26A12000                	mov ax, [es:8*4]
  1261 00000C2F A3[140C]                	mov [oldtmr], ax ; save offset of old routine
  1262 00000C32 26A12200                	mov ax, [es:8*4+2]
  1263 00000C36 A3[160C]                	mov [oldtmr+2], ax ; save segment of old routine
  1264                                  	
  1265 00000C39 FA                      	cli ; disable interrupts
  1266 00000C3A 26C7062400[A60A]        		mov word [es:9*4], kbisr 
  1267 00000C41 268C0E2600              		mov [es:9*4+2], cs 
  1268 00000C46 26C7062000[5B0B]        		mov word [es:8*4],timer
  1269 00000C4D 268C0E2200              		mov [es:8*4+2],cs
  1270 00000C52 FB                      	sti ; enable interrupts
  1271                                  	
  1272 00000C53 E87BF7                  	call start_menu
  1273                                  menu_loop:
  1274 00000C56 803E[270A]01            	cmp byte[call_instruction_menu] , 1
  1275 00000C5B 7460                    	je instruction
  1276 00000C5D 803E[0300]00            	cmp byte[start_game] , 0
  1277 00000C62 74F2                    	je menu_loop
  1278 00000C64 803E[180C]01            	cmp byte[end_game] , 1
  1279 00000C69 745E                    	je endgame
  1280                                  start_game_here:
  1281 00000C6B C606[040D]00            	mov byte[restart] , 0
  1282 00000C70 C606[050D]00            	mov byte[quit] , 0
  1283 00000C75 C606[0E00]01            	mov byte[ball_angle], 1  ; Start with 45 diagonal
  1284 00000C7A C606[0C00]01            	mov byte[incC], 1        ; Start moving right
  1285 00000C7F C606[0D00]00            	mov byte[incR], 0        ; Start moving up
  1286 00000C84 E883F8                  	call clrscr
  1287 00000C87 E850F8                  	call printStrings
  1288 00000C8A E862FF                  	call print_lives
  1289 00000C8D B8AE00                  	mov ax , 174
  1290 00000C90 50                      	push ax
  1291 00000C91 FF36[8200]              	push word[score]
  1292 00000C95 E8A8F7                  	call printnum
  1293 00000C98 E888F8                  	call border
  1294 00000C9B E885F9                  	call bricks
  1295 00000C9E C606[9400]01            	mov byte[StayOnStacker],1
  1296 00000CA3 E884FA                  	call stacker 
  1297                                  game_inner_loop:
  1298                                  		; mov ax , 402
  1299                                  		; push ax
  1300                                  		; mov ax , [second]
  1301                                  		; push ax
  1302                                  		; call printnum
  1303                                  	
  1304 00000CA6 833E[8400]00            	cmp word[total_bricks] , 0
  1305 00000CAB 741C                    	je endgame ;;;;abhi impliment karna
  1306 00000CAD 803E[180C]01            	cmp byte[end_game] , 1
  1307 00000CB2 7415                    	je endgame
  1308 00000CB4 803E[9100]00            	cmp byte[live] , 0
  1309 00000CB9 740E                    	je endgame
  1310 00000CBB EBE9                    	jmp game_inner_loop
  1311                                  instruction:
  1312 00000CBD E868FD                  	call instruction_menu
  1313                                  again_ins:
  1314 00000CC0 803E[0300]01            	cmp byte[start_game] , 1
  1315 00000CC5 74A4                    	je start_game_here
  1316 00000CC7 75F7                    	jne again_ins
  1317                                  	
  1318                                  endgame:
  1319 00000CC9 C606[0300]00            mov byte[start_game] , 0
  1320 00000CCE E83700                  call last_menu
  1321 00000CD1 E836F8                  call clrscr
  1322 00000CD4 803E[040D]01            cmp byte[restart] , 1
  1323 00000CD9 7490                    je start_game_here
  1324 00000CDB A1[0400]                mov ax , [oldisr]
  1325 00000CDE 8B1E[0600]              mov bx , [oldisr+2]
  1326 00000CE2 8B0E[140C]              mov cx , [oldtmr]
  1327 00000CE6 8B16[160C]              mov dx , [oldtmr+2]
  1328 00000CEA FA                      cli 
  1329 00000CEB 26A32400                mov [es:9*4] , ax
  1330 00000CEF 26891E2600              mov [es:9*4+2], bx
  1331 00000CF4 26890E2000              mov [es:8*4] , cx
  1332 00000CF9 2689162200              mov [es:8*4+2], dx
  1333 00000CFE FB                      sti
  1334                                  
  1335 00000CFF B8004C                  mov ax , 0x4c00
  1336 00000D02 CD21                    int 0x21
  1337                                  
  1338                                  
  1339 00000D04 00                      restart: db 0
  1340 00000D05 00                      quit: db 0
  1341 00000D06 0000                    variable: dw 0
  1342                                  
  1343                                  
  1344                                  
  1345                                  last_menu:
  1346 00000D08 50                      	push ax
  1347 00000D09 E8FEF7                  	call clrscr
  1348                                  	
  1349                                  	; Check if player lost (no lives remaining)
  1350 00000D0C 803E[9100]00            	cmp byte[live], 0
  1351 00000D11 7514                    	jne check_win
  1352                                  		; Player lost - play sad sound
  1353 00000D13 E84EF6                  		call sound_game_lost
  1354 00000D16 B8C607                  		mov ax, 1990
  1355 00000D19 50                      		push ax
  1356 00000D1A B8[4102]                		mov ax, Lose_str
  1357 00000D1D 50                      		push ax
  1358 00000D1E B80800                  		mov ax, 8
  1359 00000D21 50                      		push ax
  1360 00000D22 E887F7                  		call printstr_B
  1361 00000D25 EB19                    		jmp no_results
  1362                                  		
  1363                                  check_win:
  1364                                  	; Check if player won (all bricks destroyed)
  1365 00000D27 833E[8400]00            	cmp word[total_bricks], 0
  1366 00000D2C 7512                    	jne no_results
  1367                                  		; Player won - play victory sound
  1368 00000D2E E8C6F5                  		call sound_game_won
  1369                                  		; Display win message
  1370 00000D31 B8C607                  		mov ax, 1990
  1371 00000D34 50                      		push ax
  1372 00000D35 B8[4902]                		mov ax, Win_str
  1373 00000D38 50                      		push ax
  1374 00000D39 B80800                  		mov ax, 8
  1375 00000D3C 50                      		push ax
  1376 00000D3D E86CF7                  		call printstr_B
  1377                                  	
  1378                                  no_results:
  1379 00000D40 E84200                  	call last_menu_display
  1380                                  	
  1381                                  what_nxt:
  1382 00000D43 2E803E[040D]01          	cmp byte[cs:restart], 1
  1383 00000D49 740C                    	je do_restart
  1384 00000D4B 2E803E[050D]01          	cmp byte[cs:quit], 1
  1385 00000D51 7402                    	je go_quit
  1386 00000D53 EBEE                    	jmp what_nxt
  1387                                  
  1388                                  go_quit:
  1389 00000D55 58                      	pop ax
  1390 00000D56 C3                      	ret
  1391                                  	
  1392                                  do_restart:
  1393 00000D57 58                      	pop ax
  1394 00000D58 C706[1C00]0000          	mov word[second], 0
  1395 00000D5E C606[1F00]00            	mov byte[clock], 0
  1396 00000D63 C606[0300]01            	mov byte[start_game], 1
  1397 00000D68 C706[8400]2000          	mov word[total_bricks], 32
  1398 00000D6E C606[9100]03            	mov byte[live], 3
  1399 00000D73 C706[8200]0000          	mov word[score], 0
  1400 00000D79 C606[180C]00            	mov byte[end_game], 0
  1401 00000D7E C706[2000]0000          	mov word[bonus], 0
  1402 00000D84 C3                      	ret
  1403                                  
  1404                                  		
  1405                                  last_menu_display:
  1406 00000D85 50                      	push ax
  1407                                  	
  1408 00000D86 B8B202                  	mov ax , 690  ; row 6 col 25
  1409 00000D89 50                      	push ax
  1410 00000D8A B8[B201]                	mov ax ,total_score_str
  1411 00000D8D 50                      	push ax
  1412 00000D8E B81100                  	mov ax , 17
  1413 00000D91 50                      	push ax
  1414 00000D92 E8E9F6                  	call printstr
  1415                                  	
  1416                                  	
  1417 00000D95 B8D802                  	mov ax , 728 ; row 6 col 25
  1418 00000D98 50                      	push ax
  1419 00000D99 FF36[8200]              	push word[score]
  1420 00000D9D E8A0F6                  	call printnum
  1421                                  	
  1422                                  	
  1423 00000DA0 B83205                  	mov ax , 1330  ; row 6 col 25
  1424 00000DA3 50                      	push ax
  1425 00000DA4 B8[C501]                	mov ax ,lives_remain_str
  1426 00000DA7 50                      	push ax
  1427 00000DA8 B80F00                  	mov ax , 15
  1428 00000DAB 50                      	push ax
  1429 00000DAC E8CFF6                  	call printstr
  1430                                  	
  1431 00000DAF B87005                  	mov ax , 1392 ; row 6 col 25
  1432 00000DB2 50                      	push ax
  1433 00000DB3 FF36[9100]              	push word[live]
  1434 00000DB7 E886F6                  	call printnum
  1435                                  	
  1436                                  	
  1437 00000DBA B87206                  	mov ax , 1650  ; row 6 col 25
  1438 00000DBD 50                      	push ax
  1439 00000DBE B8[FD01]                	mov ax ,restart_str
  1440 00000DC1 50                      	push ax
  1441 00000DC2 B82200                  	mov ax , 34
  1442 00000DC5 50                      	push ax
  1443 00000DC6 E8B5F6                  	call printstr
  1444                                  	
  1445                                  	
  1446 00000DC9 B8B207                  	mov ax , 1970  ; row 6 col 25
  1447 00000DCC 50                      	push ax
  1448 00000DCD B8[E301]                	mov ax , quit_str
  1449 00000DD0 50                      	push ax
  1450 00000DD1 B81A00                  	mov ax , 26
  1451 00000DD4 50                      	push ax
  1452 00000DD5 E8A6F6                  	call printstr
  1453                                  	
  1454 00000DD8 58                      	pop ax
  1455 00000DD9 C3                      	ret
